ARM GAS  C:\Users\mcho9\AppData\Local\Temp\ccw7wjBH.s 			page 1


   1              		.cpu cortex-m3
   2              		.eabi_attribute 20, 1
   3              		.eabi_attribute 21, 1
   4              		.eabi_attribute 23, 3
   5              		.eabi_attribute 24, 1
   6              		.eabi_attribute 25, 1
   7              		.eabi_attribute 26, 1
   8              		.eabi_attribute 30, 6
   9              		.eabi_attribute 34, 1
  10              		.eabi_attribute 18, 4
  11              		.file	"stm32f10x_it.c"
  12              		.text
  13              	.Ltext0:
  14              		.cfi_sections	.debug_frame
  15              		.section	.text.NMI_Handler,"ax",%progbits
  16              		.align	1
  17              		.global	NMI_Handler
  18              		.arch armv7-m
  19              		.syntax unified
  20              		.thumb
  21              		.thumb_func
  22              		.fpu softvfp
  24              	NMI_Handler:
  25              	.LFB65:
  26              		.file 1 "Src/stm32f10x_it.c"
   1:Src/stm32f10x_it.c **** /**
   2:Src/stm32f10x_it.c ****   ******************************************************************************
   3:Src/stm32f10x_it.c ****   * @file    Project/STM32F10x_StdPeriph_Template/stm32f10x_it.c 
   4:Src/stm32f10x_it.c ****   * @author  MCD Application Team
   5:Src/stm32f10x_it.c ****   * @version V3.5.0
   6:Src/stm32f10x_it.c ****   * @date    08-April-2011
   7:Src/stm32f10x_it.c ****   * @brief   Main Interrupt Service Routines.
   8:Src/stm32f10x_it.c ****   *          This file provides template for all exceptions handler and 
   9:Src/stm32f10x_it.c ****   *          peripherals interrupt service routine.
  10:Src/stm32f10x_it.c ****   ******************************************************************************
  11:Src/stm32f10x_it.c ****   * @attention
  12:Src/stm32f10x_it.c ****   *
  13:Src/stm32f10x_it.c ****   * THE PRESENT FIRMWARE WHICH IS FOR GUIDANCE ONLY AIMS AT PROVIDING CUSTOMERS
  14:Src/stm32f10x_it.c ****   * WITH CODING INFORMATION REGARDING THEIR PRODUCTS IN ORDER FOR THEM TO SAVE
  15:Src/stm32f10x_it.c ****   * TIME. AS A RESULT, STMICROELECTRONICS SHALL NOT BE HELD LIABLE FOR ANY
  16:Src/stm32f10x_it.c ****   * DIRECT, INDIRECT OR CONSEQUENTIAL DAMAGES WITH RESPECT TO ANY CLAIMS ARISING
  17:Src/stm32f10x_it.c ****   * FROM THE CONTENT OF SUCH FIRMWARE AND/OR THE USE MADE BY CUSTOMERS OF THE
  18:Src/stm32f10x_it.c ****   * CODING INFORMATION CONTAINED HEREIN IN CONNECTION WITH THEIR PRODUCTS.
  19:Src/stm32f10x_it.c ****   *
  20:Src/stm32f10x_it.c ****   * <h2><center>&copy; COPYRIGHT 2011 STMicroelectronics</center></h2>
  21:Src/stm32f10x_it.c ****   ******************************************************************************
  22:Src/stm32f10x_it.c ****   */
  23:Src/stm32f10x_it.c **** 
  24:Src/stm32f10x_it.c **** /* Includes ------------------------------------------------------------------*/
  25:Src/stm32f10x_it.c **** #include "stm32f10x_it.h"
  26:Src/stm32f10x_it.c **** 
  27:Src/stm32f10x_it.c **** /** @addtogroup STM32F10x_StdPeriph_Template
  28:Src/stm32f10x_it.c ****   * @{
  29:Src/stm32f10x_it.c ****   */
  30:Src/stm32f10x_it.c **** 
  31:Src/stm32f10x_it.c **** /* Private typedef -----------------------------------------------------------*/
  32:Src/stm32f10x_it.c **** /* Private define ------------------------------------------------------------*/
ARM GAS  C:\Users\mcho9\AppData\Local\Temp\ccw7wjBH.s 			page 2


  33:Src/stm32f10x_it.c **** /* Private macro -------------------------------------------------------------*/
  34:Src/stm32f10x_it.c **** /* Private variables ---------------------------------------------------------*/
  35:Src/stm32f10x_it.c **** /* Private function prototypes -----------------------------------------------*/
  36:Src/stm32f10x_it.c **** /* Private functions ---------------------------------------------------------*/
  37:Src/stm32f10x_it.c **** 
  38:Src/stm32f10x_it.c **** /******************************************************************************/
  39:Src/stm32f10x_it.c **** /*            Cortex-M3 Processor Exceptions Handlers                         */
  40:Src/stm32f10x_it.c **** /******************************************************************************/
  41:Src/stm32f10x_it.c **** 
  42:Src/stm32f10x_it.c **** /**
  43:Src/stm32f10x_it.c ****   * @brief  This function handles NMI exception.
  44:Src/stm32f10x_it.c ****   * @param  None
  45:Src/stm32f10x_it.c ****   * @retval None
  46:Src/stm32f10x_it.c ****   */
  47:Src/stm32f10x_it.c **** void NMI_Handler(void)
  48:Src/stm32f10x_it.c **** {
  27              		.loc 1 48 1
  28              		.cfi_startproc
  29              		@ args = 0, pretend = 0, frame = 0
  30              		@ frame_needed = 1, uses_anonymous_args = 0
  31              		@ link register save eliminated.
  32 0000 80B4     		push	{r7}
  33              	.LCFI0:
  34              		.cfi_def_cfa_offset 4
  35              		.cfi_offset 7, -4
  36 0002 00AF     		add	r7, sp, #0
  37              	.LCFI1:
  38              		.cfi_def_cfa_register 7
  49:Src/stm32f10x_it.c **** }
  39              		.loc 1 49 1
  40 0004 00BF     		nop
  41 0006 BD46     		mov	sp, r7
  42              	.LCFI2:
  43              		.cfi_def_cfa_register 13
  44              		@ sp needed
  45 0008 80BC     		pop	{r7}
  46              	.LCFI3:
  47              		.cfi_restore 7
  48              		.cfi_def_cfa_offset 0
  49 000a 7047     		bx	lr
  50              		.cfi_endproc
  51              	.LFE65:
  53              		.section	.text.HardFault_Handler,"ax",%progbits
  54              		.align	1
  55              		.global	HardFault_Handler
  56              		.syntax unified
  57              		.thumb
  58              		.thumb_func
  59              		.fpu softvfp
  61              	HardFault_Handler:
  62              	.LFB66:
  50:Src/stm32f10x_it.c **** 
  51:Src/stm32f10x_it.c **** /**
  52:Src/stm32f10x_it.c ****   * @brief  This function handles Hard Fault exception.
  53:Src/stm32f10x_it.c ****   * @param  None
  54:Src/stm32f10x_it.c ****   * @retval None
  55:Src/stm32f10x_it.c ****   */
ARM GAS  C:\Users\mcho9\AppData\Local\Temp\ccw7wjBH.s 			page 3


  56:Src/stm32f10x_it.c **** void HardFault_Handler(void)
  57:Src/stm32f10x_it.c **** {
  63              		.loc 1 57 1
  64              		.cfi_startproc
  65              		@ args = 0, pretend = 0, frame = 0
  66              		@ frame_needed = 1, uses_anonymous_args = 0
  67              		@ link register save eliminated.
  68 0000 80B4     		push	{r7}
  69              	.LCFI4:
  70              		.cfi_def_cfa_offset 4
  71              		.cfi_offset 7, -4
  72 0002 00AF     		add	r7, sp, #0
  73              	.LCFI5:
  74              		.cfi_def_cfa_register 7
  75              	.L3:
  58:Src/stm32f10x_it.c ****   /* Go to infinite loop when Hard Fault exception occurs */
  59:Src/stm32f10x_it.c ****   while (1)
  76              		.loc 1 59 9 discriminator 1
  77 0004 FEE7     		b	.L3
  78              		.cfi_endproc
  79              	.LFE66:
  81              		.section	.text.MemManage_Handler,"ax",%progbits
  82              		.align	1
  83              		.global	MemManage_Handler
  84              		.syntax unified
  85              		.thumb
  86              		.thumb_func
  87              		.fpu softvfp
  89              	MemManage_Handler:
  90              	.LFB67:
  60:Src/stm32f10x_it.c ****   {
  61:Src/stm32f10x_it.c ****   }
  62:Src/stm32f10x_it.c **** }
  63:Src/stm32f10x_it.c **** 
  64:Src/stm32f10x_it.c **** /**
  65:Src/stm32f10x_it.c ****   * @brief  This function handles Memory Manage exception.
  66:Src/stm32f10x_it.c ****   * @param  None
  67:Src/stm32f10x_it.c ****   * @retval None
  68:Src/stm32f10x_it.c ****   */
  69:Src/stm32f10x_it.c **** void MemManage_Handler(void)
  70:Src/stm32f10x_it.c **** {
  91              		.loc 1 70 1
  92              		.cfi_startproc
  93              		@ args = 0, pretend = 0, frame = 0
  94              		@ frame_needed = 1, uses_anonymous_args = 0
  95              		@ link register save eliminated.
  96 0000 80B4     		push	{r7}
  97              	.LCFI6:
  98              		.cfi_def_cfa_offset 4
  99              		.cfi_offset 7, -4
 100 0002 00AF     		add	r7, sp, #0
 101              	.LCFI7:
 102              		.cfi_def_cfa_register 7
 103              	.L5:
  71:Src/stm32f10x_it.c ****   /* Go to infinite loop when Memory Manage exception occurs */
  72:Src/stm32f10x_it.c ****   while (1)
 104              		.loc 1 72 9 discriminator 1
ARM GAS  C:\Users\mcho9\AppData\Local\Temp\ccw7wjBH.s 			page 4


 105 0004 FEE7     		b	.L5
 106              		.cfi_endproc
 107              	.LFE67:
 109              		.section	.text.BusFault_Handler,"ax",%progbits
 110              		.align	1
 111              		.global	BusFault_Handler
 112              		.syntax unified
 113              		.thumb
 114              		.thumb_func
 115              		.fpu softvfp
 117              	BusFault_Handler:
 118              	.LFB68:
  73:Src/stm32f10x_it.c ****   {
  74:Src/stm32f10x_it.c ****   }
  75:Src/stm32f10x_it.c **** }
  76:Src/stm32f10x_it.c **** 
  77:Src/stm32f10x_it.c **** /**
  78:Src/stm32f10x_it.c ****   * @brief  This function handles Bus Fault exception.
  79:Src/stm32f10x_it.c ****   * @param  None
  80:Src/stm32f10x_it.c ****   * @retval None
  81:Src/stm32f10x_it.c ****   */
  82:Src/stm32f10x_it.c **** void BusFault_Handler(void)
  83:Src/stm32f10x_it.c **** {
 119              		.loc 1 83 1
 120              		.cfi_startproc
 121              		@ args = 0, pretend = 0, frame = 0
 122              		@ frame_needed = 1, uses_anonymous_args = 0
 123              		@ link register save eliminated.
 124 0000 80B4     		push	{r7}
 125              	.LCFI8:
 126              		.cfi_def_cfa_offset 4
 127              		.cfi_offset 7, -4
 128 0002 00AF     		add	r7, sp, #0
 129              	.LCFI9:
 130              		.cfi_def_cfa_register 7
 131              	.L7:
  84:Src/stm32f10x_it.c ****   /* Go to infinite loop when Bus Fault exception occurs */
  85:Src/stm32f10x_it.c ****   while (1)
 132              		.loc 1 85 9 discriminator 1
 133 0004 FEE7     		b	.L7
 134              		.cfi_endproc
 135              	.LFE68:
 137              		.section	.text.UsageFault_Handler,"ax",%progbits
 138              		.align	1
 139              		.global	UsageFault_Handler
 140              		.syntax unified
 141              		.thumb
 142              		.thumb_func
 143              		.fpu softvfp
 145              	UsageFault_Handler:
 146              	.LFB69:
  86:Src/stm32f10x_it.c ****   {
  87:Src/stm32f10x_it.c ****   }
  88:Src/stm32f10x_it.c **** }
  89:Src/stm32f10x_it.c **** 
  90:Src/stm32f10x_it.c **** /**
  91:Src/stm32f10x_it.c ****   * @brief  This function handles Usage Fault exception.
ARM GAS  C:\Users\mcho9\AppData\Local\Temp\ccw7wjBH.s 			page 5


  92:Src/stm32f10x_it.c ****   * @param  None
  93:Src/stm32f10x_it.c ****   * @retval None
  94:Src/stm32f10x_it.c ****   */
  95:Src/stm32f10x_it.c **** void UsageFault_Handler(void)
  96:Src/stm32f10x_it.c **** {
 147              		.loc 1 96 1
 148              		.cfi_startproc
 149              		@ args = 0, pretend = 0, frame = 0
 150              		@ frame_needed = 1, uses_anonymous_args = 0
 151              		@ link register save eliminated.
 152 0000 80B4     		push	{r7}
 153              	.LCFI10:
 154              		.cfi_def_cfa_offset 4
 155              		.cfi_offset 7, -4
 156 0002 00AF     		add	r7, sp, #0
 157              	.LCFI11:
 158              		.cfi_def_cfa_register 7
 159              	.L9:
  97:Src/stm32f10x_it.c ****   /* Go to infinite loop when Usage Fault exception occurs */
  98:Src/stm32f10x_it.c ****   while (1)
 160              		.loc 1 98 9 discriminator 1
 161 0004 FEE7     		b	.L9
 162              		.cfi_endproc
 163              	.LFE69:
 165              		.section	.text.SVC_Handler,"ax",%progbits
 166              		.align	1
 167              		.global	SVC_Handler
 168              		.syntax unified
 169              		.thumb
 170              		.thumb_func
 171              		.fpu softvfp
 173              	SVC_Handler:
 174              	.LFB70:
  99:Src/stm32f10x_it.c ****   {
 100:Src/stm32f10x_it.c ****   }
 101:Src/stm32f10x_it.c **** }
 102:Src/stm32f10x_it.c **** 
 103:Src/stm32f10x_it.c **** /**
 104:Src/stm32f10x_it.c ****   * @brief  This function handles SVCall exception.
 105:Src/stm32f10x_it.c ****   * @param  None
 106:Src/stm32f10x_it.c ****   * @retval None
 107:Src/stm32f10x_it.c ****   */
 108:Src/stm32f10x_it.c **** void SVC_Handler(void)
 109:Src/stm32f10x_it.c **** {
 175              		.loc 1 109 1
 176              		.cfi_startproc
 177              		@ args = 0, pretend = 0, frame = 0
 178              		@ frame_needed = 1, uses_anonymous_args = 0
 179              		@ link register save eliminated.
 180 0000 80B4     		push	{r7}
 181              	.LCFI12:
 182              		.cfi_def_cfa_offset 4
 183              		.cfi_offset 7, -4
 184 0002 00AF     		add	r7, sp, #0
 185              	.LCFI13:
 186              		.cfi_def_cfa_register 7
 110:Src/stm32f10x_it.c **** }
ARM GAS  C:\Users\mcho9\AppData\Local\Temp\ccw7wjBH.s 			page 6


 187              		.loc 1 110 1
 188 0004 00BF     		nop
 189 0006 BD46     		mov	sp, r7
 190              	.LCFI14:
 191              		.cfi_def_cfa_register 13
 192              		@ sp needed
 193 0008 80BC     		pop	{r7}
 194              	.LCFI15:
 195              		.cfi_restore 7
 196              		.cfi_def_cfa_offset 0
 197 000a 7047     		bx	lr
 198              		.cfi_endproc
 199              	.LFE70:
 201              		.section	.text.DebugMon_Handler,"ax",%progbits
 202              		.align	1
 203              		.global	DebugMon_Handler
 204              		.syntax unified
 205              		.thumb
 206              		.thumb_func
 207              		.fpu softvfp
 209              	DebugMon_Handler:
 210              	.LFB71:
 111:Src/stm32f10x_it.c **** 
 112:Src/stm32f10x_it.c **** /**
 113:Src/stm32f10x_it.c ****   * @brief  This function handles Debug Monitor exception.
 114:Src/stm32f10x_it.c ****   * @param  None
 115:Src/stm32f10x_it.c ****   * @retval None
 116:Src/stm32f10x_it.c ****   */
 117:Src/stm32f10x_it.c **** void DebugMon_Handler(void)
 118:Src/stm32f10x_it.c **** {
 211              		.loc 1 118 1
 212              		.cfi_startproc
 213              		@ args = 0, pretend = 0, frame = 0
 214              		@ frame_needed = 1, uses_anonymous_args = 0
 215              		@ link register save eliminated.
 216 0000 80B4     		push	{r7}
 217              	.LCFI16:
 218              		.cfi_def_cfa_offset 4
 219              		.cfi_offset 7, -4
 220 0002 00AF     		add	r7, sp, #0
 221              	.LCFI17:
 222              		.cfi_def_cfa_register 7
 119:Src/stm32f10x_it.c **** }
 223              		.loc 1 119 1
 224 0004 00BF     		nop
 225 0006 BD46     		mov	sp, r7
 226              	.LCFI18:
 227              		.cfi_def_cfa_register 13
 228              		@ sp needed
 229 0008 80BC     		pop	{r7}
 230              	.LCFI19:
 231              		.cfi_restore 7
 232              		.cfi_def_cfa_offset 0
 233 000a 7047     		bx	lr
 234              		.cfi_endproc
 235              	.LFE71:
 237              		.section	.text.PendSV_Handler,"ax",%progbits
ARM GAS  C:\Users\mcho9\AppData\Local\Temp\ccw7wjBH.s 			page 7


 238              		.align	1
 239              		.global	PendSV_Handler
 240              		.syntax unified
 241              		.thumb
 242              		.thumb_func
 243              		.fpu softvfp
 245              	PendSV_Handler:
 246              	.LFB72:
 120:Src/stm32f10x_it.c **** 
 121:Src/stm32f10x_it.c **** /**
 122:Src/stm32f10x_it.c ****   * @brief  This function handles PendSVC exception.
 123:Src/stm32f10x_it.c ****   * @param  None
 124:Src/stm32f10x_it.c ****   * @retval None
 125:Src/stm32f10x_it.c ****   */
 126:Src/stm32f10x_it.c **** void PendSV_Handler(void)
 127:Src/stm32f10x_it.c **** {
 247              		.loc 1 127 1
 248              		.cfi_startproc
 249              		@ args = 0, pretend = 0, frame = 0
 250              		@ frame_needed = 1, uses_anonymous_args = 0
 251              		@ link register save eliminated.
 252 0000 80B4     		push	{r7}
 253              	.LCFI20:
 254              		.cfi_def_cfa_offset 4
 255              		.cfi_offset 7, -4
 256 0002 00AF     		add	r7, sp, #0
 257              	.LCFI21:
 258              		.cfi_def_cfa_register 7
 128:Src/stm32f10x_it.c **** }
 259              		.loc 1 128 1
 260 0004 00BF     		nop
 261 0006 BD46     		mov	sp, r7
 262              	.LCFI22:
 263              		.cfi_def_cfa_register 13
 264              		@ sp needed
 265 0008 80BC     		pop	{r7}
 266              	.LCFI23:
 267              		.cfi_restore 7
 268              		.cfi_def_cfa_offset 0
 269 000a 7047     		bx	lr
 270              		.cfi_endproc
 271              	.LFE72:
 273              		.section	.text.SysTick_Handler,"ax",%progbits
 274              		.align	1
 275              		.global	SysTick_Handler
 276              		.syntax unified
 277              		.thumb
 278              		.thumb_func
 279              		.fpu softvfp
 281              	SysTick_Handler:
 282              	.LFB73:
 129:Src/stm32f10x_it.c **** 
 130:Src/stm32f10x_it.c **** /**
 131:Src/stm32f10x_it.c ****   * @brief  This function handles SysTick Handler.
 132:Src/stm32f10x_it.c ****   * @param  None
 133:Src/stm32f10x_it.c ****   * @retval None
 134:Src/stm32f10x_it.c ****   */
ARM GAS  C:\Users\mcho9\AppData\Local\Temp\ccw7wjBH.s 			page 8


 135:Src/stm32f10x_it.c **** void SysTick_Handler(void)
 136:Src/stm32f10x_it.c **** {
 283              		.loc 1 136 1
 284              		.cfi_startproc
 285              		@ args = 0, pretend = 0, frame = 0
 286              		@ frame_needed = 1, uses_anonymous_args = 0
 287              		@ link register save eliminated.
 288 0000 80B4     		push	{r7}
 289              	.LCFI24:
 290              		.cfi_def_cfa_offset 4
 291              		.cfi_offset 7, -4
 292 0002 00AF     		add	r7, sp, #0
 293              	.LCFI25:
 294              		.cfi_def_cfa_register 7
 137:Src/stm32f10x_it.c **** }
 295              		.loc 1 137 1
 296 0004 00BF     		nop
 297 0006 BD46     		mov	sp, r7
 298              	.LCFI26:
 299              		.cfi_def_cfa_register 13
 300              		@ sp needed
 301 0008 80BC     		pop	{r7}
 302              	.LCFI27:
 303              		.cfi_restore 7
 304              		.cfi_def_cfa_offset 0
 305 000a 7047     		bx	lr
 306              		.cfi_endproc
 307              	.LFE73:
 309              		.text
 310              	.Letext0:
 311              		.file 2 "c:\\program files (x86)\\gnu arm embedded toolchain\\9 2020-q2-update\\arm-none-eabi\\inc
 312              		.file 3 "c:\\program files (x86)\\gnu arm embedded toolchain\\9 2020-q2-update\\arm-none-eabi\\inc
 313              		.file 4 "Drivers/CMSIS/Include/core_cm3.h"
 314              		.file 5 "Drivers/CMSIS/Device/ST/STM32F1xx/Include/system_stm32f10x.h"
ARM GAS  C:\Users\mcho9\AppData\Local\Temp\ccw7wjBH.s 			page 9

